(i__main__
LogFile
p0
(dp1
S'_installed_files'
p2
(dp3
S'../../../RootIO/RootIOSvc/amd64_linux26/libRootIOSvc.so'
p4
S'../../../InstallArea/amd64_linux26/lib/libRootIOSvc.so'
p5
sS'../../RootIO/RootIOSvc/RootIOSvc'
p6
(dp7
S'../../../RootIO/RootIOSvc/RootIOSvc/NavInputStream.h'
p8
S'../../../InstallArea/include/RootIOSvc/NavInputStream.h'
p9
sS'../../../RootIO/RootIOSvc/RootIOSvc/RootOutputStream.h'
p10
S'../../../InstallArea/include/RootIOSvc/RootOutputStream.h'
p11
sS'../../../RootIO/RootIOSvc/RootIOSvc/RootOutputSvc.h'
p12
S'../../../InstallArea/include/RootIOSvc/RootOutputSvc.h'
p13
sS'../../../RootIO/RootIOSvc/RootIOSvc/RootInputStream.h'
p14
S'../../../InstallArea/include/RootIOSvc/RootInputStream.h'
p15
sS'../../../RootIO/RootIOSvc/RootIOSvc/IInputSvc.h'
p16
S'../../../InstallArea/include/RootIOSvc/IInputSvc.h'
p17
sS'../../../RootIO/RootIOSvc/RootIOSvc/IOutputSvc.h'
p18
S'../../../InstallArea/include/RootIOSvc/IOutputSvc.h'
p19
sS'../../../RootIO/RootIOSvc/RootIOSvc/RootIOStream.h'
p20
S'../../../InstallArea/include/RootIOSvc/RootIOStream.h'
p21
sS'../../../RootIO/RootIOSvc/RootIOSvc/RootInputSvc.h'
p22
S'../../../InstallArea/include/RootIOSvc/RootInputSvc.h'
p23
sS'../../../RootIO/RootIOSvc/RootIOSvc/IOutputStream.h'
p24
S'../../../InstallArea/include/RootIOSvc/IOutputStream.h'
p25
sS'../../../RootIO/RootIOSvc/RootIOSvc/IInputStream.h'
p26
S'../../../InstallArea/include/RootIOSvc/IInputStream.h'
p27
ssS'../RootIO/RootIOSvc/python'
p28
(dp29
S'../../../RootIO/RootIOSvc/python/RootIOSvc/__init__.py'
p30
S'../../../InstallArea/python/RootIOSvc/__init__.py'
p31
sssb.