(i__main__
LogFile
p0
(dp1
S'_installed_files'
p2
(dp3
S'../../../Tag/TagInfo/TagInfo/amd64_linux26/libTagInfo.so'
p4
S'../../../../InstallArea/amd64_linux26/lib/libTagInfo.so'
p5
sS'../../../Tag/TagInfo/TagInfo/amd64_linux26/libTagInfo.rootmap'
p6
S'../../../../InstallArea/amd64_linux26/lib/libTagInfo.rootmap'
p7
sS'../../../Tag/Tag/amd64_linux26/libTag.so'
p8
S'../../../InstallArea/amd64_linux26/lib/libTag.so'
p9
sS'../../../Tag/TagInfo/amd64_linux26/libTagInfo.rootmap'
p10
S'../../../InstallArea/amd64_linux26/lib/libTagInfo.rootmap'
p11
sS'../../../Tag/IBDEvent/amd64_linux26/IBDHeaderDict_rdict.pcm'
p12
S'../../../InstallArea/amd64_linux26/lib/IBDHeaderDict_rdict.pcm'
p13
sS'../../../OECEvent/amd64_linux26/libOECEvent.rootmap'
p14
S'../../InstallArea/amd64_linux26/lib/libOECEvent.rootmap'
p15
sS'../../../OECEvent/amd64_linux26/libOECEvent.so'
p16
S'../../InstallArea/amd64_linux26/lib/libOECEvent.so'
p17
sS'../../OECEvent/Event'
p18
(dp19
S'../../../OECEvent/Event/OECHeader.h'
p20
S'../../InstallArea/include/Event/OECHeader.h'
p21
sS'../../../OECEvent/Event/OECEvent.h'
p22
S'../../InstallArea/include/Event/OECEvent.h'
p23
ssS'../../../Tag/IBDEvent/amd64_linux26/IBDTagDict_rdict.pcm'
p24
S'../../../InstallArea/amd64_linux26/lib/IBDTagDict_rdict.pcm'
p25
sS'../../../Tag/Tag/amd64_linux26/TagHeaderDict_rdict.pcm'
p26
S'../../../InstallArea/amd64_linux26/lib/TagHeaderDict_rdict.pcm'
p27
sS'../../../Tag/IBDEvent/amd64_linux26/libIBDEvent.so'
p28
S'../../../InstallArea/amd64_linux26/lib/libIBDEvent.so'
p29
sS'../../Tag/TagInfo/TagInfo/Event'
p30
(dp31
S'../../../Tag/TagInfo/TagInfo/Event/Tag.h'
p32
S'../../../../InstallArea/include/Event/Tag.h'
p33
ssS'../../Tag/TagInfo/Event'
p34
(dp35
S'../../../Tag/TagInfo/Event/Tag.h'
p36
S'../../../InstallArea/include/Event/Tag.h'
p37
ssS'../../Tag/Tag/Event'
p38
(dp39
S'../../../Tag/Tag/Event/TagHeader.h'
p40
S'../../../InstallArea/include/Event/TagHeader.h'
p41
ssS'../../../Tag/IBDEvent/amd64_linux26/libIBDEvent.rootmap'
p42
S'../../../InstallArea/amd64_linux26/lib/libIBDEvent.rootmap'
p43
sS'../../../OECEvent/amd64_linux26/OECEventDict_rdict.pcm'
p44
S'../../InstallArea/amd64_linux26/lib/OECEventDict_rdict.pcm'
p45
sS'../../../Tag/Tag/amd64_linux26/libTag.rootmap'
p46
S'../../../InstallArea/amd64_linux26/lib/libTag.rootmap'
p47
sS'../../../Tag/TagInfo/TagInfo/amd64_linux26/TagDict_rdict.pcm'
p48
S'../../../../InstallArea/amd64_linux26/lib/TagDict_rdict.pcm'
p49
sS'../../../Tag/TagInfo/amd64_linux26/TagDict_rdict.pcm'
p50
S'../../../InstallArea/amd64_linux26/lib/TagDict_rdict.pcm'
p51
sS'../../../Tag/IBDEvent/amd64_linux26/IBDEventDict_rdict.pcm'
p52
S'../../../InstallArea/amd64_linux26/lib/IBDEventDict_rdict.pcm'
p53
sS'../../../Tag/TagInfo/amd64_linux26/libTagInfo.so'
p54
S'../../../InstallArea/amd64_linux26/lib/libTagInfo.so'
p55
sS'../../Tag/IBDEvent/Event'
p56
(dp57
S'../../../Tag/IBDEvent/Event/IBDEvent.h'
p58
S'../../../InstallArea/include/Event/IBDEvent.h'
p59
sS'../../../Tag/IBDEvent/Event/IBDHeader.h'
p60
S'../../../InstallArea/include/Event/IBDHeader.h'
p61
sssb.