(i__main__
LogFile
p0
(dp1
S'_installed_files'
p2
(dp3
S'../MPITag/python'
p4
(dp5
S'../../../MPITag/python/MPITag/__init__.py'
p6
S'../../InstallArea/python/MPITag/__init__.py'
p7
ssS'../Tag/TagEventSvc/python'
p8
(dp9
S'../../../Tag/TagEventSvc/python/TagEventSvc/__init__.py'
p10
S'../../../InstallArea/python/TagEventSvc/__init__.py'
p11
ssS'../../../Tag/TagEventSvc/amd64_linux26/libTagEventSvc.so'
p12
S'../../../InstallArea/amd64_linux26/lib/libTagEventSvc.so'
p13
sS'../../../Tag/EventWriter/amd64_linux26/libEventWriter.so'
p14
S'../../../InstallArea/amd64_linux26/lib/libEventWriter.so'
p15
sS'../../../Tag/TagWriter/amd64_linux26/libTagWriter.so'
p16
S'../../../InstallArea/amd64_linux26/lib/libTagWriter.so'
p17
sS'../Tag/EventWriter/python'
p18
(dp19
S'../../../Tag/EventWriter/python/EventWriter/__init__.py'
p20
S'../../../InstallArea/python/EventWriter/__init__.py'
p21
ssS'../../../Tag/TagBuffer/amd64_linux26/libTagBuffer.so'
p22
S'../../../InstallArea/amd64_linux26/lib/libTagBuffer.so'
p23
sS'../../Tag/TagAnaSvc/TagAnaSvc'
p24
(dp25
S'../../../Tag/TagAnaSvc/TagAnaSvc/TagAnaEvent.h'
p26
S'../../../InstallArea/include/TagAnaSvc/TagAnaEvent.h'
p27
sS'../../../Tag/TagAnaSvc/TagAnaSvc/TagAnaStream.h'
p28
S'../../../InstallArea/include/TagAnaSvc/TagAnaStream.h'
p29
sS'../../../Tag/TagAnaSvc/TagAnaSvc/DummyStore.h'
p30
S'../../../InstallArea/include/TagAnaSvc/DummyStore.h'
p31
sS'../../../Tag/TagAnaSvc/TagAnaSvc/TagAnaSvc.h'
p32
S'../../../InstallArea/include/TagAnaSvc/TagAnaSvc.h'
p33
sS'../../../Tag/TagAnaSvc/TagAnaSvc/OutputPopSvc.h'
p34
S'../../../InstallArea/include/TagAnaSvc/OutputPopSvc.h'
p35
ssS'../../MPITag/MPITag'
p36
(dp37
S'../../../MPITag/MPITag/TagPart.h'
p38
S'../../InstallArea/include/MPITag/TagPart.h'
p39
sS'../../../MPITag/MPITag/.InputAlg.h.swp'
p40
S'../../InstallArea/include/MPITag/.InputAlg.h.swp'
p41
sS'../../../MPITag/MPITag/TagInputStream.h'
p42
S'../../InstallArea/include/MPITag/TagInputStream.h'
p43
sS'../../../MPITag/MPITag/FirstFilterAlg.h'
p44
S'../../InstallArea/include/MPITag/FirstFilterAlg.h'
p45
sS'../../../MPITag/MPITag/TagMgr.h'
p46
S'../../InstallArea/include/MPITag/TagMgr.h'
p47
sS'../../../MPITag/MPITag/.TagAnaEvent.h.swp'
p48
S'../../InstallArea/include/MPITag/.TagAnaEvent.h.swp'
p49
sS'../../../MPITag/MPITag/TagAnaEvent.h'
p50
S'../../InstallArea/include/MPITag/TagAnaEvent.h'
p51
sS'../../../MPITag/MPITag/InputAlg.h'
p52
S'../../InstallArea/include/MPITag/InputAlg.h'
p53
sS'../../../MPITag/MPITag/OECBufAlg.h'
p54
S'../../InstallArea/include/MPITag/OECBufAlg.h'
p55
sS'../../../MPITag/MPITag/TagEvent.h'
p56
S'../../InstallArea/include/MPITag/TagEvent.h'
p57
sS'../../../MPITag/MPITag/.TagInputStream.h.swp'
p58
S'../../InstallArea/include/MPITag/.TagInputStream.h.swp'
p59
ssS'../Tag/TagWriter/python'
p60
(dp61
S'../../../Tag/TagWriter/python/TagWriter/__init__.py'
p62
S'../../../InstallArea/python/TagWriter/__init__.py'
p63
ssS'../../../Tag/TagAnaSvc/amd64_linux26/libTagAnaSvc.so'
p64
S'../../../InstallArea/amd64_linux26/lib/libTagAnaSvc.so'
p65
sS'../../../Tag/EventWriter/amd64_linux26/libTagWriter.so'
p66
S'../../../InstallArea/amd64_linux26/lib/libTagWriter.so'
p67
sS'../../../MPITag/amd64_linux26/libMPITag.so'
p68
S'../../InstallArea/amd64_linux26/lib/libMPITag.so'
p69
sS'../../Tag/TagEventSvc/TagEventSvc'
p70
(dp71
S'../../../Tag/TagEventSvc/TagEventSvc/TagEventSvc.h'
p72
S'../../../InstallArea/include/TagEventSvc/TagEventSvc.h'
p73
sS'../../../Tag/TagEventSvc/TagEventSvc/OutputPopSvc.h'
p74
S'../../../InstallArea/include/TagEventSvc/OutputPopSvc.h'
p75
sS'../../../Tag/TagEventSvc/TagEventSvc/TagAnaEvent.h'
p76
S'../../../InstallArea/include/TagEventSvc/TagAnaEvent.h'
p77
sS'../../../Tag/TagEventSvc/TagEventSvc/TagEventStream.h'
p78
S'../../../InstallArea/include/TagEventSvc/TagEventStream.h'
p79
sS'../../../Tag/TagEventSvc/TagEventSvc/DummyStore.h'
p80
S'../../../InstallArea/include/TagEventSvc/DummyStore.h'
p81
ssS'../Tag/TagBuffer/python'
p82
(dp83
S'../../../Tag/TagBuffer/python/TagBuffer/__init__.py'
p84
S'../../../InstallArea/python/TagBuffer/__init__.py'
p85
ssS'../../Tag/TagWriter/TagWriter'
p86
(dp87
S'../../../Tag/TagWriter/TagWriter/__init__.py'
p88
S'../../../InstallArea/include/TagWriter/__init__.py'
p89
ssS'../Tag/TagAnaSvc/python'
p90
(dp91
S'../../../Tag/TagAnaSvc/python/TagAnaSvc/__init__.py'
p92
S'../../../InstallArea/python/TagAnaSvc/__init__.py'
p93
ssS'../../Tag/TagBuffer/TagBuffer'
p94
(dp95
S'../../../Tag/TagBuffer/TagBuffer/OutputPopSvc.h'
p96
S'../../../InstallArea/include/TagBuffer/OutputPopSvc.h'
p97
sS'../../../Tag/TagBuffer/TagBuffer/DummyStore.h'
p98
S'../../../InstallArea/include/TagBuffer/DummyStore.h'
p99
sssb.