(i__main__
LogFile
p0
(dp1
S'_installed_files'
p2
(dp3
S'../../../Tag/TagAna/amd64_linux26/libTagAna.so'
p4
S'../../../InstallArea/amd64_linux26/lib/libTagAna.so'
p5
sS'../../Tag/TagAna/TagAna'
p6
(dp7
S'../../../Tag/TagAna/TagAna/FullWinNavBuf.h'
p8
S'../../../InstallArea/include/TagAna/FullWinNavBuf.h'
p9
sS'../../../Tag/TagAna/TagAna/EndWinHdl.h'
p10
S'../../../InstallArea/include/TagAna/EndWinHdl.h'
p11
sS'../../../Tag/TagAna/TagAna/TagWinMemMgr.h'
p12
S'../../../InstallArea/include/TagAna/TagWinMemMgr.h'
p13
sS'../../../Tag/TagAna/TagAna/WinInputSvc.h'
p14
S'../../../InstallArea/include/TagAna/WinInputSvc.h'
p15
sS'../../../Tag/TagAna/TagAna/BeginWinHdl.h'
p16
S'../../../InstallArea/include/TagAna/BeginWinHdl.h'
p17
sS'../../../Tag/TagAna/TagAna/TagAnaEvent.h'
p18
S'../../../InstallArea/include/TagAna/TagAnaEvent.h'
p19
sS'../../../Tag/TagAna/TagAna/WinOutputSvc.h'
p20
S'../../../InstallArea/include/TagAna/WinOutputSvc.h'
p21
ssS'../../Tag/TagAnaSvc/TagAnaSvc'
p22
(dp23
S'../../../Tag/TagAnaSvc/TagAnaSvc/TagAnaEvent.h'
p24
S'../../../InstallArea/include/TagAnaSvc/TagAnaEvent.h'
p25
sS'../../../Tag/TagAnaSvc/TagAnaSvc/WinInputSvc.h'
p26
S'../../../InstallArea/include/TagAnaSvc/WinInputSvc.h'
p27
sS'../../../Tag/TagAnaSvc/TagAnaSvc/EndWinHdl.h'
p28
S'../../../InstallArea/include/TagAnaSvc/EndWinHdl.h'
p29
sS'../../../Tag/TagAnaSvc/TagAnaSvc/TagWinMemMgr.h'
p30
S'../../../InstallArea/include/TagAnaSvc/TagWinMemMgr.h'
p31
sS'../../../Tag/TagAnaSvc/TagAnaSvc/WinOutputSvc.h'
p32
S'../../../InstallArea/include/TagAnaSvc/WinOutputSvc.h'
p33
sS'../../../Tag/TagAnaSvc/TagAnaSvc/TagAnaStream.h.bk'
p34
S'../../../InstallArea/include/TagAnaSvc/TagAnaStream.h.bk'
p35
sS'../../../Tag/TagAnaSvc/TagAnaSvc/TagAnaSvc.h.bk'
p36
S'../../../InstallArea/include/TagAnaSvc/TagAnaSvc.h.bk'
p37
sS'../../../Tag/TagAnaSvc/TagAnaSvc/FullWinNavBuf.h'
p38
S'../../../InstallArea/include/TagAnaSvc/FullWinNavBuf.h'
p39
sS'../../../Tag/TagAnaSvc/TagAnaSvc/BeginWinHdl.h'
p40
S'../../../InstallArea/include/TagAnaSvc/BeginWinHdl.h'
p41
ssS'../../Tag/EventAna/EventAna'
p42
(dp43
S'../../../Tag/EventAna/EventAna/WinInputSvc.h'
p44
S'../../../InstallArea/include/EventAna/WinInputSvc.h'
p45
sS'../../../Tag/EventAna/EventAna/BeginWinHdl.h'
p46
S'../../../InstallArea/include/EventAna/BeginWinHdl.h'
p47
sS'../../../Tag/EventAna/EventAna/EventAnaAlg.h'
p48
S'../../../InstallArea/include/EventAna/EventAnaAlg.h'
p49
sS'../../../Tag/EventAna/EventAna/WinOutputSvc.h'
p50
S'../../../InstallArea/include/EventAna/WinOutputSvc.h'
p51
sS'../../../Tag/EventAna/EventAna/EventWinMemMgr.h'
p52
S'../../../InstallArea/include/EventAna/EventWinMemMgr.h'
p53
sS'../../../Tag/EventAna/EventAna/FullWinNavBuf.h'
p54
S'../../../InstallArea/include/EventAna/FullWinNavBuf.h'
p55
sS'../../../Tag/EventAna/EventAna/EndWinHdl.h'
p56
S'../../../InstallArea/include/EventAna/EndWinHdl.h'
p57
ssS'../../../Tag/TagAnaSvc/amd64_linux26/libTagAnaSvc.so'
p58
S'../../../InstallArea/amd64_linux26/lib/libTagAnaSvc.so'
p59
sS'../../../Tag/EventAna/amd64_linux26/libEventAna.so'
p60
S'../../../InstallArea/amd64_linux26/lib/libEventAna.so'
p61
sS'../Tag/TagAnaSvc/python'
p62
(dp63
S'../../../Tag/TagAnaSvc/python/TagAnaSvc/__init__.py'
p64
S'../../../InstallArea/python/TagAnaSvc/__init__.py'
p65
ssS'../Tag/TagAna/python'
p66
(dp67
S'../../../Tag/TagAna/python/TagAna/__init__.py'
p68
S'../../../InstallArea/python/TagAna/__init__.py'
p69
sssb.