(i__main__
LogFile
p0
(dp1
S'_installed_files'
p2
(dp3
S'../Tag/SniperMuster/python'
p4
(dp5
S'../../../Tag/SniperMuster/python/SniperMuster/__init__.py'
p6
S'../../../InstallArea/python/SniperMuster/__init__.py'
p7
ssS'../../Tag/SniperMuster/SniperMuster'
p8
(dp9
S'../../../Tag/SniperMuster/SniperMuster/GlobalBuffer.h'
p10
S'../../../InstallArea/include/SniperMuster/GlobalBuffer.h'
p11
ssS'../../../Tag/SniperMuster/amd64_linux26/libSniperMuster.so'
p12
S'../../../InstallArea/amd64_linux26/lib/libSniperMuster.so'
p13
ssb.