(i__main__
LogFile
p0
(dp1
S'_installed_files'
p2
(dp3
S'../../../Tag/IndexReader/amd64_linux26/libIndexReader.so'
p4
S'../../../InstallArea/amd64_linux26/lib/libIndexReader.so'
p5
sS'../../Tag/TagReader/TagReader'
p6
(dp7
S'../../../Tag/TagReader/TagReader/TagReaderMemMgr.h'
p8
S'../../../InstallArea/include/TagReader/TagReaderMemMgr.h'
p9
sS'../../../Tag/TagReader/TagReader/.IIndexReader.h.swp'
p10
S'../../../InstallArea/include/TagReader/.IIndexReader.h.swp'
p11
sS'../../../Tag/TagReader/TagReader/.TxtIndexReader.h.swp'
p12
S'../../../InstallArea/include/TagReader/.TxtIndexReader.h.swp'
p13
sS'../../../Tag/TagReader/TagReader/.BeginReaderHdl.h.swp'
p14
S'../../../InstallArea/include/TagReader/.BeginReaderHdl.h.swp'
p15
sS'../../../Tag/TagReader/TagReader/IIndexReader.h'
p16
S'../../../InstallArea/include/TagReader/IIndexReader.h'
p17
sS'../../../Tag/TagReader/TagReader/TxtIndexReader.h'
p18
S'../../../InstallArea/include/TagReader/TxtIndexReader.h'
p19
sS'../../../Tag/TagReader/TagReader/BeginReaderHdl.h'
p20
S'../../../InstallArea/include/TagReader/BeginReaderHdl.h'
p21
ssS'../../Tag/IndexReader/IndexReader'
p22
(dp23
S'../../../Tag/IndexReader/IndexReader/IIndexReader.h'
p24
S'../../../InstallArea/include/IndexReader/IIndexReader.h'
p25
sS'../../../Tag/IndexReader/IndexReader/TxtIndexReader.h'
p26
S'../../../InstallArea/include/IndexReader/TxtIndexReader.h'
p27
sS'../../../Tag/IndexReader/IndexReader/IndexReaderMemMgr.h'
p28
S'../../../InstallArea/include/IndexReader/IndexReaderMemMgr.h'
p29
sS'../../../Tag/IndexReader/IndexReader/BeginReaderHdl.h'
p30
S'../../../InstallArea/include/IndexReader/BeginReaderHdl.h'
p31
ssS'../../../Tag/TagReader/amd64_linux26/libTagReader.so'
p32
S'../../../InstallArea/amd64_linux26/lib/libTagReader.so'
p33
sS'../Tag/IndexReader/python'
p34
(dp35
S'../../../Tag/IndexReader/python/IndexReader/__init__.py'
p36
S'../../../InstallArea/python/IndexReader/__init__.py'
p37
ssS'../Tag/TagReader/python'
p38
(dp39
S'../../../Tag/TagReader/python/TagReader/__init__.py'
p40
S'../../../InstallArea/python/TagReader/__init__.py'
p41
sssb.