(i__main__
LogFile
p0
(dp1
S'_installed_files'
p2
(dp3
S'../MPITag/python'
p4
(dp5
S'../../../MPITag/python/MPITag/__init__.py'
p6
S'../../InstallArea/python/MPITag/__init__.py'
p7
ssS'../Tag/TagSelectSvc/python'
p8
(dp9
S'../../../Tag/TagSelectSvc/python/TagSelectSvc/__init__.py'
p10
S'../../../InstallArea/python/TagSelectSvc/__init__.py'
p11
ssS'../Tag/TagEventSvc/python'
p12
(dp13
S'../../../Tag/TagEventSvc/python/TagEventSvc/__init__.py'
p14
S'../../../InstallArea/python/TagEventSvc/__init__.py'
p15
ssS'../../../Tag/TagEventSvc/amd64_linux26/libTagEventSvc.so'
p16
S'../../../InstallArea/amd64_linux26/lib/libTagEventSvc.so'
p17
sS'../../../Tag/TagSelectSvc/amd64_linux26/libTagSelectSvc.so'
p18
S'../../../InstallArea/amd64_linux26/lib/libTagSelectSvc.so'
p19
sS'../../../Tag/IndexSelect/amd64_linux26/libIndexSelect.so'
p20
S'../../../InstallArea/amd64_linux26/lib/libIndexSelect.so'
p21
sS'../../MPITag/MPITag'
p22
(dp23
S'../../../MPITag/MPITag/TagPart.h'
p24
S'../../InstallArea/include/MPITag/TagPart.h'
p25
sS'../../../MPITag/MPITag/.InputAlg.h.swp'
p26
S'../../InstallArea/include/MPITag/.InputAlg.h.swp'
p27
sS'../../../MPITag/MPITag/TagInputStream.h'
p28
S'../../InstallArea/include/MPITag/TagInputStream.h'
p29
sS'../../../MPITag/MPITag/FirstFilterAlg.h'
p30
S'../../InstallArea/include/MPITag/FirstFilterAlg.h'
p31
sS'../../../MPITag/MPITag/TagMgr.h'
p32
S'../../InstallArea/include/MPITag/TagMgr.h'
p33
sS'../../../MPITag/MPITag/.TagAnaEvent.h.swp'
p34
S'../../InstallArea/include/MPITag/.TagAnaEvent.h.swp'
p35
sS'../../../MPITag/MPITag/TagAnaEvent.h'
p36
S'../../InstallArea/include/MPITag/TagAnaEvent.h'
p37
sS'../../../MPITag/MPITag/InputAlg.h'
p38
S'../../InstallArea/include/MPITag/InputAlg.h'
p39
sS'../../../MPITag/MPITag/OECBufAlg.h'
p40
S'../../InstallArea/include/MPITag/OECBufAlg.h'
p41
sS'../../../MPITag/MPITag/TagEvent.h'
p42
S'../../InstallArea/include/MPITag/TagEvent.h'
p43
sS'../../../MPITag/MPITag/.TagInputStream.h.swp'
p44
S'../../InstallArea/include/MPITag/.TagInputStream.h.swp'
p45
ssS'../../Tag/TagSelectSvc/TagSelectSvc'
p46
(dp47
S'../../../Tag/TagSelectSvc/TagSelectSvc/SelectMemMgr.h'
p48
S'../../../InstallArea/include/TagSelectSvc/SelectMemMgr.h'
p49
sS'../../../Tag/TagSelectSvc/TagSelectSvc/SelectStore.h'
p50
S'../../../InstallArea/include/TagSelectSvc/SelectStore.h'
p51
sS'../../../Tag/TagSelectSvc/TagSelectSvc/.TagEventStream.h.swp'
p52
S'../../../InstallArea/include/TagSelectSvc/.TagEventStream.h.swp'
p53
sS'../../../Tag/TagSelectSvc/TagSelectSvc/.SelectInputSvc.h.swp'
p54
S'../../../InstallArea/include/TagSelectSvc/.SelectInputSvc.h.swp'
p55
sS'../../../Tag/TagSelectSvc/TagSelectSvc/SelectInputSvc.h'
p56
S'../../../InstallArea/include/TagSelectSvc/SelectInputSvc.h'
p57
sS'../../../Tag/TagSelectSvc/TagSelectSvc/FirstFilterAlg.h'
p58
S'../../../InstallArea/include/TagSelectSvc/FirstFilterAlg.h'
p59
sS'../../../Tag/TagSelectSvc/TagSelectSvc/BeginSelectHdl.h'
p60
S'../../../InstallArea/include/TagSelectSvc/BeginSelectHdl.h'
p61
sS'../../../Tag/TagSelectSvc/TagSelectSvc/TagSelectStream.h.bk'
p62
S'../../../InstallArea/include/TagSelectSvc/TagSelectStream.h.bk'
p63
sS'../../../Tag/TagSelectSvc/TagSelectSvc/TagSelectSvc.h.bk'
p64
S'../../../InstallArea/include/TagSelectSvc/TagSelectSvc.h.bk'
p65
ssS'../../../Tag/TagSelect/amd64_linux26/libTagSelect.so'
p66
S'../../../InstallArea/amd64_linux26/lib/libTagSelect.so'
p67
sS'../../../MPITag/amd64_linux26/libMPITag.so'
p68
S'../../InstallArea/amd64_linux26/lib/libMPITag.so'
p69
sS'../../Tag/TagEventSvc/TagEventSvc'
p70
(dp71
S'../../../Tag/TagEventSvc/TagEventSvc/.TagEventStream.h.swp'
p72
S'../../../InstallArea/include/TagEventSvc/.TagEventStream.h.swp'
p73
sS'../../../Tag/TagEventSvc/TagEventSvc/TagEventStream.h'
p74
S'../../../InstallArea/include/TagEventSvc/TagEventStream.h'
p75
sS'../../../Tag/TagEventSvc/TagEventSvc/TagEventSvc.h.bk'
p76
S'../../../InstallArea/include/TagEventSvc/TagEventSvc.h.bk'
p77
sS'../../../Tag/TagEventSvc/TagEventSvc/.TagEventSvc.h.swp'
p78
S'../../../InstallArea/include/TagEventSvc/.TagEventSvc.h.swp'
p79
sS'../../../Tag/TagEventSvc/TagEventSvc/TagEventSvc.h'
p80
S'../../../InstallArea/include/TagEventSvc/TagEventSvc.h'
p81
sS'../../../Tag/TagEventSvc/TagEventSvc/TagEventStream.h.bk'
p82
S'../../../InstallArea/include/TagEventSvc/TagEventStream.h.bk'
p83
ssS'../Tag/TagSelect/python'
p84
(dp85
S'../../../Tag/TagSelect/python/TagSelectSvc/__init__.py'
p86
S'../../../InstallArea/python/TagSelectSvc/__init__.py'
p87
ssS'../../Tag/TagSelect/TagSelect'
p88
(dp89
S'../../../Tag/TagSelect/TagSelect/SelectMemMgr.h'
p90
S'../../../InstallArea/include/TagSelect/SelectMemMgr.h'
p91
sS'../../../Tag/TagSelect/TagSelect/.TagEventStream.h.swp'
p92
S'../../../InstallArea/include/TagSelect/.TagEventStream.h.swp'
p93
sS'../../../Tag/TagSelect/TagSelect/SelectStore.h'
p94
S'../../../InstallArea/include/TagSelect/SelectStore.h'
p95
sS'../../../Tag/TagSelect/TagSelect/FirstFilterAlg.h'
p96
S'../../../InstallArea/include/TagSelect/FirstFilterAlg.h'
p97
sS'../../../Tag/TagSelect/TagSelect/BeginSelectHdl.h'
p98
S'../../../InstallArea/include/TagSelect/BeginSelectHdl.h'
p99
sS'../../../Tag/TagSelect/TagSelect/SelectInputSvc.h'
p100
S'../../../InstallArea/include/TagSelect/SelectInputSvc.h'
p101
ssS'../../Tag/IndexSelect/IndexSelect'
p102
(dp103
S'../../../Tag/IndexSelect/IndexSelect/BeginSelectHdl.h'
p104
S'../../../InstallArea/include/IndexSelect/BeginSelectHdl.h'
p105
sS'../../../Tag/IndexSelect/IndexSelect/SelectMemMgr.h'
p106
S'../../../InstallArea/include/IndexSelect/SelectMemMgr.h'
p107
sS'../../../Tag/IndexSelect/IndexSelect/SelectStore.h'
p108
S'../../../InstallArea/include/IndexSelect/SelectStore.h'
p109
sS'../../../Tag/IndexSelect/IndexSelect/FirstFilterAlg.h'
p110
S'../../../InstallArea/include/IndexSelect/FirstFilterAlg.h'
p111
sS'../../../Tag/IndexSelect/IndexSelect/.TagEventStream.h.swp'
p112
S'../../../InstallArea/include/IndexSelect/.TagEventStream.h.swp'
p113
sS'../../../Tag/IndexSelect/IndexSelect/SelectInputSvc.h'
p114
S'../../../InstallArea/include/IndexSelect/SelectInputSvc.h'
p115
sssb.