(i__main__
LogFile
p0
(dp1
S'_installed_files'
p2
(dp3
S'../mt.sniper/HelloWorld/python'
p4
(dp5
S'../../../mt.sniper/HelloWorld/python/HelloWorld/HelloPy.py'
p6
S'../../../InstallArea/python/HelloWorld/HelloPy.py'
p7
sS'../../../mt.sniper/HelloWorld/python/HelloWorld/__init__.py'
p8
S'../../../InstallArea/python/HelloWorld/__init__.py'
p9
ssS'../../../Tag/DataGen/amd64_linux26/libDataGen.so'
p10
S'../../../InstallArea/amd64_linux26/lib/libDataGen.so'
p11
sS'../../../mt.sniper/HelloWorld/amd64_linux26/libHelloWorld.so'
p12
S'../../../InstallArea/amd64_linux26/lib/libHelloWorld.so'
p13
sS'../Tag/DataGen/python'
p14
(dp15
S'../../../Tag/DataGen/python/DataGen/__init__.py'
p16
S'../../../InstallArea/python/DataGen/__init__.py'
p17
sssb.