(i__main__
LogFile
p0
(dp1
S'_installed_files'
p2
(dp3
S'../../../Tag/TagIO/amd64_linux26/libTagIO.so'
p4
S'../../../InstallArea/amd64_linux26/lib/libTagIO.so'
p5
sS'../Tag/TagIO/python'
p6
(dp7
S'../../../Tag/TagIO/python/TagIO/__init__.py'
p8
S'../../../InstallArea/python/TagIO/__init__.py'
p9
ssS'../../Tag/TagIO/TagIO'
p10
(dp11
S'../../../Tag/TagIO/TagIO/BeginIOHdl.h'
p12
S'../../../InstallArea/include/TagIO/BeginIOHdl.h'
p13
sS'../../../Tag/TagIO/TagIO/IOInputSvc.h'
p14
S'../../../InstallArea/include/TagIO/IOInputSvc.h'
p15
sS'../../../Tag/TagIO/TagIO/WindowHandler.h'
p16
S'../../../InstallArea/include/TagIO/WindowHandler.h'
p17
sS'../../../Tag/TagIO/TagIO/TagWindow.h'
p18
S'../../../InstallArea/include/TagIO/TagWindow.h'
p19
sS'../../../Tag/TagIO/TagIO/TagIOMemMgr.h'
p20
S'../../../InstallArea/include/TagIO/TagIOMemMgr.h'
p21
sS'../../../Tag/TagIO/TagIO/BeginReadIOHdl.h'
p22
S'../../../InstallArea/include/TagIO/BeginReadIOHdl.h'
p23
ssS'../../../Tag/IndexEventIO/amd64_linux26/libIndexEventIO.so'
p24
S'../../../InstallArea/amd64_linux26/lib/libIndexEventIO.so'
p25
sS'../../Tag/IndexEventIO/IndexEventIO'
p26
(dp27
S'../../../Tag/IndexEventIO/IndexEventIO/BeginReadIOHdl.h'
p28
S'../../../InstallArea/include/IndexEventIO/BeginReadIOHdl.h'
p29
sS'../../../Tag/IndexEventIO/IndexEventIO/IndexEventIOMemMgr.h'
p30
S'../../../InstallArea/include/IndexEventIO/IndexEventIOMemMgr.h'
p31
sS'../../../Tag/IndexEventIO/IndexEventIO/IOInputSvc.h'
p32
S'../../../InstallArea/include/IndexEventIO/IOInputSvc.h'
p33
sS'../../../Tag/IndexEventIO/IndexEventIO/BeginIOHdl.h'
p34
S'../../../InstallArea/include/IndexEventIO/BeginIOHdl.h'
p35
sS'../../../Tag/IndexEventIO/IndexEventIO/EventWindow.h'
p36
S'../../../InstallArea/include/IndexEventIO/EventWindow.h'
p37
sS'../../../Tag/IndexEventIO/IndexEventIO/WindowHandler.h'
p38
S'../../../InstallArea/include/IndexEventIO/WindowHandler.h'
p39
sssb.