(i__main__
LogFile
p0
(dp1
S'_installed_files'
p2
(dp3
S'../../Tag/TagInfo/Event'
p4
(dp5
S'../../../Tag/TagInfo/Event/Tag.h'
p6
S'../../../InstallArea/include/Event/Tag.h'
p7
ssS'../../../OECEvent/amd64_linux26/libOECEvent.rootmap'
p8
S'../../InstallArea/amd64_linux26/lib/libOECEvent.rootmap'
p9
sS'../../Tag/Tag/Event'
p10
(dp11
S'../../../Tag/Tag/Event/TagHeader.h'
p12
S'../../../InstallArea/include/Event/TagHeader.h'
p13
ssS'../../../OECEvent/amd64_linux26/libOECEvent.so'
p14
S'../../InstallArea/amd64_linux26/lib/libOECEvent.so'
p15
sS'../../../Tag/TagInfo/amd64_linux26/TagDict_rdict.pcm'
p16
S'../../../InstallArea/amd64_linux26/lib/TagDict_rdict.pcm'
p17
sS'../../../Tag/TagInfo/TagInfo/amd64_linux26/libTagInfo.so'
p18
S'../../../../InstallArea/amd64_linux26/lib/libTagInfo.so'
p19
sS'../../OECEvent/Event'
p20
(dp21
S'../../../OECEvent/Event/OECHeader.h'
p22
S'../../InstallArea/include/Event/OECHeader.h'
p23
sS'../../../OECEvent/Event/OECEvent.h'
p24
S'../../InstallArea/include/Event/OECEvent.h'
p25
ssS'../../../Tag/TagInfo/amd64_linux26/libTagInfo.so'
p26
S'../../../InstallArea/amd64_linux26/lib/libTagInfo.so'
p27
sS'../../../Tag/TagInfo/amd64_linux26/libTagInfo.rootmap'
p28
S'../../../InstallArea/amd64_linux26/lib/libTagInfo.rootmap'
p29
sS'../../../OECEvent/amd64_linux26/OECEventDict_rdict.pcm'
p30
S'../../InstallArea/amd64_linux26/lib/OECEventDict_rdict.pcm'
p31
sS'../../../Tag/TagInfo/TagInfo/amd64_linux26/libTagInfo.rootmap'
p32
S'../../../../InstallArea/amd64_linux26/lib/libTagInfo.rootmap'
p33
sS'../../../Tag/Tag/amd64_linux26/TagHeaderDict_rdict.pcm'
p34
S'../../../InstallArea/amd64_linux26/lib/TagHeaderDict_rdict.pcm'
p35
sS'../../../Tag/Tag/amd64_linux26/libTag.so'
p36
S'../../../InstallArea/amd64_linux26/lib/libTag.so'
p37
sS'../../../Tag/Tag/amd64_linux26/libTag.rootmap'
p38
S'../../../InstallArea/amd64_linux26/lib/libTag.rootmap'
p39
sS'../../Tag/TagInfo/TagInfo/Event'
p40
(dp41
S'../../../Tag/TagInfo/TagInfo/Event/Tag.h'
p42
S'../../../../InstallArea/include/Event/Tag.h'
p43
ssS'../../../Tag/TagInfo/TagInfo/amd64_linux26/TagDict_rdict.pcm'
p44
S'../../../../InstallArea/amd64_linux26/lib/TagDict_rdict.pcm'
p45
ssb.