(i__main__
LogFile
p0
(dp1
S'_installed_files'
p2
(dp3
S'../../OECEvent/Event'
p4
(dp5
S'../../../OECEvent/Event/OECEvent.h'
p6
S'../../InstallArea/include/Event/OECEvent.h'
p7
sS'../../../OECEvent/Event/OECHeader.h'
p8
S'../../InstallArea/include/Event/OECHeader.h'
p9
ssS'../../../OECEvent/amd64_linux26/OECEventDict_rdict.pcm'
p10
S'../../InstallArea/amd64_linux26/lib/OECEventDict_rdict.pcm'
p11
sS'../../../OECEvent/amd64_linux26/libOECEvent.rootmap'
p12
S'../../InstallArea/amd64_linux26/lib/libOECEvent.rootmap'
p13
sS'../../../OECEvent/amd64_linux26/OECHeaderDict_rdict.pcm'
p14
S'../../InstallArea/amd64_linux26/lib/OECHeaderDict_rdict.pcm'
p15
sS'../../../OECEvent/amd64_linux26/libOECEvent.so'
p16
S'../../InstallArea/amd64_linux26/lib/libOECEvent.so'
p17
ssb.